; Function Attrs: inlinehint mustprogress uwtable
define internal fastcc void @"_ZZN2lp10int_solver31get_freedom_interval_for_columnEjRbRNS_12numeric_pairI8rationalEES1_S5_RS3_ENK3$_0clERKS3_RKS4_SB_"(ptr dead_on_unwind noalias nonnull writable align 8 %0, ptr noundef nonnull align 8 dereferenceable(32) %1, ptr noundef nonnull align 8 dereferenceable(64) %2, ptr noundef nonnull align 8 dereferenceable(64) %3) unnamed_addr #5 align 2 personality ptr @__gxx_personality_v0 {
  %5 = alloca %"struct.lp::numeric_pair", align 8
  %6 = getelementptr inbounds nuw i8, ptr %1, i64 4
  %7 = load i8, ptr %6, align 4
  %8 = and i8 %7, 1
  %9 = icmp eq i8 %8, 0
  %10 = load i32, ptr %1, align 8
  %11 = icmp eq i32 %10, 1
  %12 = select i1 %9, i1 %11, i1 false
  br i1 %12, label %_ZNK8rational6is_oneEv.exit, label %22

_ZNK8rational6is_oneEv.exit:                      ; preds = %4
  %13 = getelementptr inbounds nuw i8, ptr %1, i64 16
  %14 = getelementptr inbounds nuw i8, ptr %1, i64 20
  %15 = load i8, ptr %14, align 4
  %16 = and i8 %15, 1
  %17 = icmp eq i8 %16, 0
  %18 = load i32, ptr %13, align 8
  %19 = icmp eq i32 %18, 1
  %20 = select i1 %17, i1 %19, i1 false
  br i1 %20, label %21, label %_ZNK8rational12is_minus_oneEv.exit.thread

21:                                               ; preds = %_ZNK8rational6is_oneEv.exit
  tail call void @_ZNK2lp12numeric_pairI8rationalEmiERKS2_(ptr dead_on_unwind nonnull writable sret(%"struct.lp::numeric_pair") align 8 %0, ptr noundef nonnull align 8 dereferenceable(64) %2, ptr noundef nonnull align 8 dereferenceable(64) %3)
  br label %48

22:                                               ; preds = %4
  %23 = icmp eq i32 %10, -1
  %24 = select i1 %9, i1 %23, i1 false
  br i1 %24, label %_ZNK8rational12is_minus_oneEv.exit, label %_ZNK8rational12is_minus_oneEv.exit.thread

_ZNK8rational12is_minus_oneEv.exit:               ; preds = %22
  %25 = getelementptr inbounds nuw i8, ptr %1, i64 16
  %26 = getelementptr inbounds nuw i8, ptr %1, i64 20
  %27 = load i8, ptr %26, align 4
  %28 = and i8 %27, 1
  %29 = icmp eq i8 %28, 0
  %30 = load i32, ptr %25, align 8
  %31 = icmp eq i32 %30, 1
  %32 = select i1 %29, i1 %31, i1 false
  br i1 %32, label %33, label %_ZNK8rational12is_minus_oneEv.exit.thread

33:                                               ; preds = %_ZNK8rational12is_minus_oneEv.exit
  tail call void @_ZNK2lp12numeric_pairI8rationalEmiERKS2_(ptr dead_on_unwind nonnull writable sret(%"struct.lp::numeric_pair") align 8 %0, ptr noundef nonnull align 8 dereferenceable(64) %3, ptr noundef nonnull align 8 dereferenceable(64) %2)
  br label %48

_ZNK8rational12is_minus_oneEv.exit.thread:        ; preds = %_ZNK8rational6is_oneEv.exit, %22, %_ZNK8rational12is_minus_oneEv.exit
  call void @llvm.lifetime.start.p0(i64 64, ptr nonnull %5) #25
  call void @_ZNK2lp12numeric_pairI8rationalEmiERKS2_(ptr dead_on_unwind nonnull writable sret(%"struct.lp::numeric_pair") align 8 %5, ptr noundef nonnull align 8 dereferenceable(64) %2, ptr noundef nonnull align 8 dereferenceable(64) %3)
  invoke void @_ZNK2lp12numeric_pairI8rationalEdvERKS1_(ptr dead_on_unwind nonnull writable sret(%"struct.lp::numeric_pair") align 8 %0, ptr noundef nonnull align 8 dereferenceable(64) %5, ptr noundef nonnull align 8 dereferenceable(32) %1)
          to label %34 unwind label %46

34:                                               ; preds = %_ZNK8rational12is_minus_oneEv.exit.thread
  %35 = getelementptr inbounds nuw i8, ptr %5, i64 32
  %36 = load ptr, ptr @_ZN8rational13g_mpq_managerE, align 8, !tbaa !14
  invoke void @_ZN11mpz_managerILb1EE3delEPS0_R3mpz(ptr noundef %36, ptr noundef nonnull align 8 dereferenceable(32) %35)
          to label %.noexc.i.i unwind label %38

.noexc.i.i:                                       ; preds = %34
  %37 = getelementptr inbounds nuw i8, ptr %5, i64 48
  invoke void @_ZN11mpz_managerILb1EE3delEPS0_R3mpz(ptr noundef %36, ptr noundef nonnull align 8 dereferenceable(16) %37)
          to label %_ZN8rationalD2Ev.exit.i unwind label %38

38:                                               ; preds = %.noexc.i.i, %34
  %39 = landingpad { ptr, i32 }
          catch ptr null
  %40 = extractvalue { ptr, i32 } %39, 0
  call void @__clang_call_terminate(ptr %40) #26
  unreachable

_ZN8rationalD2Ev.exit.i:                          ; preds = %.noexc.i.i
  %41 = load ptr, ptr @_ZN8rational13g_mpq_managerE, align 8, !tbaa !14
  invoke void @_ZN11mpz_managerILb1EE3delEPS0_R3mpz(ptr noundef %41, ptr noundef nonnull align 8 dereferenceable(64) %5)
          to label %.noexc.i1.i unwind label %43

.noexc.i1.i:                                      ; preds = %_ZN8rationalD2Ev.exit.i
  %42 = getelementptr inbounds nuw i8, ptr %5, i64 16
  invoke void @_ZN11mpz_managerILb1EE3delEPS0_R3mpz(ptr noundef %41, ptr noundef nonnull align 8 dereferenceable(16) %42)
          to label %_ZN2lp12numeric_pairI8rationalED2Ev.exit unwind label %43

43:                                               ; preds = %.noexc.i1.i, %_ZN8rationalD2Ev.exit.i
  %44 = landingpad { ptr, i32 }
          catch ptr null
  %45 = extractvalue { ptr, i32 } %44, 0
  call void @__clang_call_terminate(ptr %45) #26
  unreachable

_ZN2lp12numeric_pairI8rationalED2Ev.exit:         ; preds = %.noexc.i1.i
  call void @llvm.lifetime.end.p0(i64 64, ptr nonnull %5) #25
  br label %48

46:                                               ; preds = %_ZNK8rational12is_minus_oneEv.exit.thread
  %47 = landingpad { ptr, i32 }
          cleanup
  call void @_ZN2lp12numeric_pairI8rationalED2Ev(ptr noundef nonnull align 8 dereferenceable(64) %5) #25
  call void @llvm.lifetime.end.p0(i64 64, ptr nonnull %5) #25
  resume { ptr, i32 } %47

48:                                               ; preds = %_ZN2lp12numeric_pairI8rationalED2Ev.exit, %33, %21
  ret void
}